target datalayout = "e-m:e-p270:32:32-p271:32:32-p272:64:64-i64:64-i128:128-f80:128-n8:16:32:64-S128"
target triple = "x86_64-pc-linux-gnu"

%struct.anon = type { i32, ptr, ptr, i32, i32, i32, i32, i32, i32, i32, i32, i32, ptr, ptr, ptr, ptr, ptr, ptr, ptr, ptr, [1 x %struct.__jmp_buf_tag], i32, ptr, ptr }
%struct.__jmp_buf_tag = type { [8 x i64], i32, %struct.__sigset_t }
%struct.__sigset_t = type { [16 x i64] }
%struct.clar_func = type { ptr, ptr }
%struct.clar_suite = type { ptr, %struct.clar_func, %struct.clar_func, ptr, i64, i32 }
%struct.clar_explicit = type { i64, ptr, ptr }

@_clar = internal global %struct.anon zeroinitializer, align 8

; Function Attrs: nounwind uwtable
define dso_local i32 @clar_test_run() #0 {
  %1 = alloca i64, align 8
  %2 = alloca ptr, align 8
  call void @llvm.lifetime.start.p0(i64 8, ptr %1) #13
  call void @llvm.lifetime.start.p0(i64 8, ptr %2) #13
  %3 = load ptr, ptr getelementptr inbounds nuw (%struct.anon, ptr @_clar, i32 0, i32 14), align 8, !tbaa !37
  %4 = icmp ne ptr %3, null
  br i1 %4, label %5, label %23

5:                                                ; preds = %0
  %6 = load ptr, ptr getelementptr inbounds nuw (%struct.anon, ptr @_clar, i32 0, i32 14), align 8, !tbaa !37
  store ptr %6, ptr %2, align 8, !tbaa !33
  br label %7

7:                                                ; preds = %18, %5
  %8 = load ptr, ptr %2, align 8, !tbaa !33
  %9 = icmp ne ptr %8, null
  br i1 %9, label %10, label %22

10:                                               ; preds = %7
  %11 = load ptr, ptr %2, align 8, !tbaa !33
  %12 = getelementptr inbounds nuw %struct.clar_explicit, ptr %11, i32 0, i32 0
  %13 = load i64, ptr %12, align 8, !tbaa !34
  %14 = getelementptr inbounds nuw [6 x %struct.clar_suite], ptr @_clar_suites, i64 0, i64 %13
  %15 = load ptr, ptr %2, align 8, !tbaa !33
  %16 = getelementptr inbounds nuw %struct.clar_explicit, ptr %15, i32 0, i32 1
  %17 = load ptr, ptr %16, align 8, !tbaa !36
  call void @clar_run_suite(ptr noundef %14, ptr noundef %17)
  br label %18

18:                                               ; preds = %10
  %19 = load ptr, ptr %2, align 8, !tbaa !33
  %20 = getelementptr inbounds nuw %struct.clar_explicit, ptr %19, i32 0, i32 2
  %21 = load ptr, ptr %20, align 8, !tbaa !39
  store ptr %21, ptr %2, align 8, !tbaa !33
  br label %7, !llvm.loop !53

22:                                               ; preds = %7
  br label %34

23:                                               ; preds = %0
  store i64 0, ptr %1, align 8, !tbaa !26
  br label %24

24:                                               ; preds = %30, %23
  %25 = load i64, ptr %1, align 8, !tbaa !26
  %26 = icmp ult i64 %25, 6
  br i1 %26, label %27, label %33

27:                                               ; preds = %24
  %28 = load i64, ptr %1, align 8, !tbaa !26
  %29 = getelementptr inbounds nuw [6 x %struct.clar_suite], ptr @_clar_suites, i64 0, i64 %28
  call void @clar_run_suite(ptr noundef %29, ptr noundef null)
  br label %30

30:                                               ; preds = %27
  %31 = load i64, ptr %1, align 8, !tbaa !26
  %32 = add i64 %31, 1
  store i64 %32, ptr %1, align 8, !tbaa !26
  br label %24, !llvm.loop !54

33:                                               ; preds = %24
  br label %34

34:                                               ; preds = %33, %22
  %35 = load i32, ptr getelementptr inbounds nuw (%struct.anon, ptr @_clar, i32 0, i32 4), align 4, !tbaa !55
  call void @llvm.lifetime.end.p0(i64 8, ptr %2) #13
  call void @llvm.lifetime.end.p0(i64 8, ptr %1) #13
  ret i32 %35
}

; Function Attrs: nounwind uwtable
define dso_local i32 @clar_test(i32 noundef %0, ptr noundef %1) #0 {
  %3 = alloca i32, align 4
  %4 = alloca ptr, align 8
  %5 = alloca i32, align 4
  store i32 %0, ptr %3, align 4, !tbaa !16
  store ptr %1, ptr %4, align 8, !tbaa !17
  call void @llvm.lifetime.start.p0(i64 4, ptr %5) #13
  %6 = load i32, ptr %3, align 4, !tbaa !16
  %7 = load ptr, ptr %4, align 8, !tbaa !17
  call void @clar_test_init(i32 noundef %6, ptr noundef %7)
  %8 = call i32 @clar_test_run()
  store i32 %8, ptr %5, align 4, !tbaa !16
  call void @clar_test_shutdown()
  %9 = load i32, ptr %5, align 4, !tbaa !16
  call void @llvm.lifetime.end.p0(i64 4, ptr %5) #13
  ret i32 %9
}