; Function Attrs: nounwind uwtable
define dso_local i32 @clar_test(i32 noundef %0, ptr noundef readonly captures(none) %1) local_unnamed_addr #1 {
  tail call void @clar_test_init(i32 noundef %0, ptr noundef %1)
  %3 = load ptr, ptr getelementptr inbounds nuw (i8, ptr @_clar, i64 80), align 8, !tbaa !28
  %.not.i = icmp eq ptr %3, null
  br i1 %.not.i, label %.preheader.i, label %.preheader9.i

.preheader9.i:                                    ; preds = %2, %.preheader9.i
  %.011.i = phi ptr [ %9, %.preheader9.i ], [ %3, %2 ]
  %4 = load i64, ptr %.011.i, align 8, !tbaa !25
  %5 = getelementptr inbounds nuw [6 x %struct.clar_suite], ptr @_clar_suites, i64 0, i64 %4
  %6 = getelementptr inbounds nuw i8, ptr %.011.i, i64 8
  %7 = load ptr, ptr %6, align 8, !tbaa !27
  tail call fastcc void @clar_run_suite(ptr noundef nonnull %5, ptr noundef %7)
  %8 = getelementptr inbounds nuw i8, ptr %.011.i, i64 16
  %9 = load ptr, ptr %8, align 8, !tbaa !29
  %.not8.i = icmp eq ptr %9, null
  br i1 %.not8.i, label %clar_test_run.exit, label %.preheader9.i, !llvm.loop !50

.preheader.i:                                     ; preds = %2, %.preheader.i
  %.0612.i = phi i64 [ %11, %.preheader.i ], [ 0, %2 ]
  %10 = getelementptr inbounds nuw [6 x %struct.clar_suite], ptr @_clar_suites, i64 0, i64 %.0612.i
  tail call fastcc void @clar_run_suite(ptr noundef nonnull %10, ptr noundef null)
  %11 = add nuw nsw i64 %.0612.i, 1
  %exitcond.not.i = icmp eq i64 %11, 6
  br i1 %exitcond.not.i, label %clar_test_run.exit, label %.preheader.i, !llvm.loop !51

clar_test_run.exit:                               ; preds = %.preheader9.i, %.preheader.i
  %12 = load i32, ptr getelementptr inbounds nuw (i8, ptr @_clar, i64 28), align 4, !tbaa !52
  tail call void @clar_test_shutdown()
  ret i32 %12
}